target datalayout = "e-m:e-p270:32:32-p271:32:32-p272:64:64-i64:64-i128:128-f80:128-n8:16:32:64-S128"
target triple = "x86_64-pc-linux-gnu"

%struct.sql_error_callback_arg = type { i32, ptr }
%struct.ErrorContextCallback = type { ptr, ptr, ptr }

@error_context_stack = external global ptr, align 8
@plpgsql_check_syntax = external global i8, align 1
@plpgsql_compile_tmp_cxt = external global ptr, align 8
@CurrentMemoryContext = external global ptr, align 8

; Function Attrs: inlinehint nounwind uwtable
define internal ptr @MemoryContextSwitchTo(ptr noundef %0) #6 {
  %2 = alloca ptr, align 8
  %3 = alloca ptr, align 8
  store ptr %0, ptr %2, align 8
  call void @llvm.lifetime.start.p0(i64 8, ptr %3) #10
  %4 = load ptr, ptr @CurrentMemoryContext, align 8
  store ptr %4, ptr %3, align 8
  %5 = load ptr, ptr %2, align 8
  store ptr %5, ptr @CurrentMemoryContext, align 8
  %6 = load ptr, ptr %3, align 8
  call void @llvm.lifetime.end.p0(i64 8, ptr %3) #10
  ret ptr %6
}

; Function Attrs: nounwind uwtable
define internal void @check_sql_expr(ptr noundef %0, i32 noundef %1, i32 noundef %2, ptr noundef %3) #0 {
  %5 = alloca ptr, align 8
  %6 = alloca i32, align 4
  %7 = alloca i32, align 4
  %8 = alloca ptr, align 8
  %9 = alloca %struct.sql_error_callback_arg, align 8
  %10 = alloca %struct.ErrorContextCallback, align 8
  %11 = alloca ptr, align 8
  %12 = alloca i32, align 4
  store ptr %0, ptr %5, align 8
  store i32 %1, ptr %6, align 4
  store i32 %2, ptr %7, align 4
  store ptr %3, ptr %8, align 8
  call void @llvm.lifetime.start.p0(i64 16, ptr %9) #10
  call void @llvm.lifetime.start.p0(i64 24, ptr %10) #10
  call void @llvm.lifetime.start.p0(i64 8, ptr %11) #10
  %13 = load i8, ptr @plpgsql_check_syntax, align 1, !range !3, !noundef !4
  %14 = trunc i8 %13 to i1
  br i1 %14, label %16, label %15

15:                                               ; preds = %4
  store i32 1, ptr %12, align 4
  br label %34

16:                                               ; preds = %4
  %17 = load i32, ptr %7, align 4
  %18 = getelementptr inbounds nuw %struct.sql_error_callback_arg, ptr %9, i32 0, i32 0
  store i32 %17, ptr %18, align 8
  %19 = load ptr, ptr %8, align 8
  %20 = getelementptr inbounds nuw %struct.sql_error_callback_arg, ptr %9, i32 0, i32 1
  store ptr %19, ptr %20, align 8
  %21 = getelementptr inbounds nuw %struct.ErrorContextCallback, ptr %10, i32 0, i32 1
  store ptr @plpgsql_sql_error_callback, ptr %21, align 8
  %22 = getelementptr inbounds nuw %struct.ErrorContextCallback, ptr %10, i32 0, i32 2
  store ptr %9, ptr %22, align 8
  %23 = load ptr, ptr @error_context_stack, align 8
  %24 = getelementptr inbounds nuw %struct.ErrorContextCallback, ptr %10, i32 0, i32 0
  store ptr %23, ptr %24, align 8
  store ptr %10, ptr @error_context_stack, align 8
  %25 = load ptr, ptr @plpgsql_compile_tmp_cxt, align 8
  %26 = call ptr @MemoryContextSwitchTo(ptr noundef %25)
  store ptr %26, ptr %11, align 8
  %27 = load ptr, ptr %5, align 8
  %28 = load i32, ptr %6, align 4
  %29 = call ptr @raw_parser(ptr noundef %27, i32 noundef %28)
  %30 = load ptr, ptr %11, align 8
  %31 = call ptr @MemoryContextSwitchTo(ptr noundef %30)
  %32 = getelementptr inbounds nuw %struct.ErrorContextCallback, ptr %10, i32 0, i32 0
  %33 = load ptr, ptr %32, align 8
  store ptr %33, ptr @error_context_stack, align 8
  store i32 0, ptr %12, align 4
  br label %34

34:                                               ; preds = %16, %15
  call void @llvm.lifetime.end.p0(i64 8, ptr %11) #10
  call void @llvm.lifetime.end.p0(i64 24, ptr %10) #10
  call void @llvm.lifetime.end.p0(i64 16, ptr %9) #10
  %35 = load i32, ptr %12, align 4
  switch i32 %35, label %37 [
    i32 0, label %36
    i32 1, label %36
  ]

36:                                               ; preds = %34, %34
  ret void

37:                                               ; preds = %34
  unreachable
}