; Function Attrs: nounwind uwtable
define internal fastcc void @check_sql_expr(ptr noundef %0, i32 noundef %1, i32 noundef %2, ptr noundef %3) unnamed_addr #0 {
  %5 = alloca %struct.sql_error_callback_arg, align 8
  %6 = alloca %struct.ErrorContextCallback, align 8
  call void @llvm.lifetime.start.p0(i64 16, ptr nonnull %5) #12
  call void @llvm.lifetime.start.p0(i64 24, ptr nonnull %6) #12
  %7 = load i8, ptr @plpgsql_check_syntax, align 1, !range !3, !noundef !4
  %8 = trunc nuw i8 %7 to i1
  br i1 %8, label %9, label %18

9:                                                ; preds = %4
  store i32 %2, ptr %5, align 8
  %10 = getelementptr inbounds nuw i8, ptr %5, i64 8
  store ptr %3, ptr %10, align 8
  %11 = getelementptr inbounds nuw i8, ptr %6, i64 8
  store ptr @plpgsql_sql_error_callback, ptr %11, align 8
  %12 = getelementptr inbounds nuw i8, ptr %6, i64 16
  store ptr %5, ptr %12, align 8
  %13 = load ptr, ptr @error_context_stack, align 8
  store ptr %13, ptr %6, align 8
  store ptr %6, ptr @error_context_stack, align 8
  %14 = load ptr, ptr @plpgsql_compile_tmp_cxt, align 8
  %15 = load ptr, ptr @CurrentMemoryContext, align 8
  store ptr %14, ptr @CurrentMemoryContext, align 8
  %16 = call ptr @raw_parser(ptr noundef %0, i32 noundef %1) #12
  store ptr %15, ptr @CurrentMemoryContext, align 8
  %17 = load ptr, ptr %6, align 8
  store ptr %17, ptr @error_context_stack, align 8
  br label %18

18:                                               ; preds = %4, %9
  call void @llvm.lifetime.end.p0(i64 24, ptr nonnull %6) #12
  call void @llvm.lifetime.end.p0(i64 16, ptr nonnull %5) #12
  ret void
}